; ModuleID = '15/1627.c'
source_filename = "15/1627.c"
target datalayout = "e-m:e-p270:32:32-p271:32:32-p272:64:64-i64:64-f80:128-n8:16:32:64-S128"
target triple = "x86_64-pc-linux-gnu"

@.str = private unnamed_addr constant [4 x i8] c"%d\0A\00", align 1
@.str.1 = private unnamed_addr constant [3 x i8] c"%d\00", align 1

; Function Attrs: noinline nounwind uwtable
define dso_local i32 @main() #0 {
  %1 = alloca i32, align 4
  %2 = alloca [1000 x [1000 x i32]], align 16
  %3 = alloca i32, align 4
  %4 = alloca i32, align 4
  %5 = alloca i32, align 4
  %6 = alloca i32, align 4
  %7 = alloca i32, align 4
  %8 = alloca i32, align 4
  %9 = alloca i32, align 4
  %10 = alloca i32, align 4
  %11 = alloca i32, align 4
  %12 = alloca i32, align 4
  store i32 0, i32* %1, align 4
  %13 = call i32 (i8*, ...) @__isoc99_scanf(i8* getelementptr inbounds ([4 x i8], [4 x i8]* @.str, i64 0, i64 0), i32* %5)
  store i32 0, i32* %3, align 4
  br label %14

14:                                               ; preds = %35, %0
  %15 = load i32, i32* %3, align 4
  %16 = load i32, i32* %5, align 4
  %17 = icmp slt i32 %15, %16
  br i1 %17, label %18, label %38

18:                                               ; preds = %14
  store i32 0, i32* %4, align 4
  br label %19

19:                                               ; preds = %31, %18
  %20 = load i32, i32* %4, align 4
  %21 = load i32, i32* %5, align 4
  %22 = icmp slt i32 %20, %21
  br i1 %22, label %23, label %34

23:                                               ; preds = %19
  %24 = load i32, i32* %3, align 4
  %25 = sext i32 %24 to i64
  %26 = getelementptr inbounds [1000 x [1000 x i32]], [1000 x [1000 x i32]]* %2, i64 0, i64 %25
  %27 = load i32, i32* %4, align 4
  %28 = sext i32 %27 to i64
  %29 = getelementptr inbounds [1000 x i32], [1000 x i32]* %26, i64 0, i64 %28
  %30 = call i32 (i8*, ...) @__isoc99_scanf(i8* getelementptr inbounds ([3 x i8], [3 x i8]* @.str.1, i64 0, i64 0), i32* %29)
  br label %31

31:                                               ; preds = %23
  %32 = load i32, i32* %4, align 4
  %33 = add nsw i32 %32, 1
  store i32 %33, i32* %4, align 4
  br label %19

34:                                               ; preds = %19
  br label %35

35:                                               ; preds = %34
  %36 = load i32, i32* %3, align 4
  %37 = add nsw i32 %36, 1
  store i32 %37, i32* %3, align 4
  br label %14

38:                                               ; preds = %14
  store i32 0, i32* %3, align 4
  br label %39

39:                                               ; preds = %74, %38
  %40 = load i32, i32* %3, align 4
  %41 = load i32, i32* %5, align 4
  %42 = icmp slt i32 %40, %41
  br i1 %42, label %43, label %77

43:                                               ; preds = %39
  store i32 0, i32* %4, align 4
  br label %44

44:                                               ; preds = %61, %43
  %45 = load i32, i32* %4, align 4
  %46 = load i32, i32* %5, align 4
  %47 = icmp slt i32 %45, %46
  br i1 %47, label %48, label %64

48:                                               ; preds = %44
  %49 = load i32, i32* %3, align 4
  %50 = sext i32 %49 to i64
  %51 = getelementptr inbounds [1000 x [1000 x i32]], [1000 x [1000 x i32]]* %2, i64 0, i64 %50
  %52 = load i32, i32* %4, align 4
  %53 = sext i32 %52 to i64
  %54 = getelementptr inbounds [1000 x i32], [1000 x i32]* %51, i64 0, i64 %53
  %55 = load i32, i32* %54, align 4
  %56 = icmp eq i32 %55, 0
  br i1 %56, label %57, label %60

57:                                               ; preds = %48
  %58 = load i32, i32* %3, align 4
  store i32 %58, i32* %6, align 4
  %59 = load i32, i32* %4, align 4
  store i32 %59, i32* %7, align 4
  br label %64

60:                                               ; preds = %48
  br label %61

61:                                               ; preds = %60
  %62 = load i32, i32* %4, align 4
  %63 = add nsw i32 %62, 1
  store i32 %63, i32* %4, align 4
  br label %44

64:                                               ; preds = %57, %44
  %65 = load i32, i32* %6, align 4
  %66 = load i32, i32* %3, align 4
  %67 = icmp eq i32 %65, %66
  br i1 %67, label %68, label %73

68:                                               ; preds = %64
  %69 = load i32, i32* %7, align 4
  %70 = load i32, i32* %4, align 4
  %71 = icmp eq i32 %69, %70
  br i1 %71, label %72, label %73

72:                                               ; preds = %68
  br label %77

73:                                               ; preds = %68, %64
  br label %74

74:                                               ; preds = %73
  %75 = load i32, i32* %3, align 4
  %76 = add nsw i32 %75, 1
  store i32 %76, i32* %3, align 4
  br label %39

77:                                               ; preds = %72, %39
  %78 = load i32, i32* %7, align 4
  store i32 %78, i32* %11, align 4
  br label %79

79:                                               ; preds = %96, %77
  %80 = load i32, i32* %11, align 4
  %81 = load i32, i32* %5, align 4
  %82 = icmp slt i32 %80, %81
  br i1 %82, label %83, label %99

83:                                               ; preds = %79
  %84 = load i32, i32* %6, align 4
  %85 = sext i32 %84 to i64
  %86 = getelementptr inbounds [1000 x [1000 x i32]], [1000 x [1000 x i32]]* %2, i64 0, i64 %85
  %87 = load i32, i32* %11, align 4
  %88 = sext i32 %87 to i64
  %89 = getelementptr inbounds [1000 x i32], [1000 x i32]* %86, i64 0, i64 %88
  %90 = load i32, i32* %89, align 4
  %91 = icmp eq i32 %90, 255
  br i1 %91, label %92, label %95

92:                                               ; preds = %83
  %93 = load i32, i32* %11, align 4
  %94 = sub nsw i32 %93, 1
  store i32 %94, i32* %9, align 4
  br label %99

95:                                               ; preds = %83
  br label %96

96:                                               ; preds = %95
  %97 = load i32, i32* %11, align 4
  %98 = add nsw i32 %97, 1
  store i32 %98, i32* %11, align 4
  br label %79

99:                                               ; preds = %92, %79
  %100 = load i32, i32* %6, align 4
  store i32 %100, i32* %10, align 4
  br label %101

101:                                              ; preds = %118, %99
  %102 = load i32, i32* %10, align 4
  %103 = load i32, i32* %5, align 4
  %104 = icmp slt i32 %102, %103
  br i1 %104, label %105, label %121

105:                                              ; preds = %101
  %106 = load i32, i32* %10, align 4
  %107 = sext i32 %106 to i64
  %108 = getelementptr inbounds [1000 x [1000 x i32]], [1000 x [1000 x i32]]* %2, i64 0, i64 %107
  %109 = load i32, i32* %7, align 4
  %110 = sext i32 %109 to i64
  %111 = getelementptr inbounds [1000 x i32], [1000 x i32]* %108, i64 0, i64 %110
  %112 = load i32, i32* %111, align 4
  %113 = icmp eq i32 %112, 255
  br i1 %113, label %114, label %117

114:                                              ; preds = %105
  %115 = load i32, i32* %10, align 4
  %116 = sub nsw i32 %115, 1
  store i32 %116, i32* %8, align 4
  br label %121

117:                                              ; preds = %105
  br label %118

118:                                              ; preds = %117
  %119 = load i32, i32* %10, align 4
  %120 = add nsw i32 %119, 1
  store i32 %120, i32* %10, align 4
  br label %101

121:                                              ; preds = %114, %101
  %122 = load i32, i32* %8, align 4
  %123 = load i32, i32* %6, align 4
  %124 = sub nsw i32 %122, %123
  %125 = sub nsw i32 %124, 1
  %126 = load i32, i32* %9, align 4
  %127 = load i32, i32* %7, align 4
  %128 = sub nsw i32 %126, %127
  %129 = sub nsw i32 %128, 1
  %130 = mul nsw i32 %125, %129
  store i32 %130, i32* %12, align 4
  %131 = load i32, i32* %12, align 4
  %132 = call i32 (i8*, ...) @printf(i8* getelementptr inbounds ([3 x i8], [3 x i8]* @.str.1, i64 0, i64 0), i32 %131)
  ret i32 0
}

declare dso_local i32 @__isoc99_scanf(i8*, ...) #1

declare dso_local i32 @printf(i8*, ...) #1


!llvm.module.flags = !{!0}
!llvm.ident = !{!1}

!0 = !{i32 1, !"wchar_size", i32 4}
!1 = !{!"clang version 10.0.0-4ubuntu1 "}
